
ebpf_bytecode.o:	file format elf64-bpf

Disassembly of section sk_skb:

0000000000000000 <packet_capture__>:
       0:	7b 1a f8 ff 00 00 00 00	*(u64 *)(r10 - 0x8) = r1
       1:	18 01 00 00 00 00 00 00 00 00 00 00 00 00 00 00	r1 = 0x0 ll
       3:	7b 1a f0 fe 00 00 00 00	*(u64 *)(r10 - 0x110) = r1
       4:	79 15 00 00 00 00 00 00	r5 = *(u64 *)(r1 + 0x0)
       5:	79 a1 f8 ff 00 00 00 00	r1 = *(u64 *)(r10 - 0x8)
       6:	b7 02 00 00 00 00 00 00	r2 = 0x0
       7:	7b 2a 10 ff 00 00 00 00	*(u64 *)(r10 - 0xf0) = r2
       8:	bf a3 00 00 00 00 00 00	r3 = r10
       9:	07 03 00 00 ea ff ff ff	r3 += -0x16
      10:	b7 04 00 00 0e 00 00 00	r4 = 0xe
      11:	7b 4a e8 fe 00 00 00 00	*(u64 *)(r10 - 0x118) = r4
      12:	8d 00 00 00 05 00 00 00	callx r5
      13:	79 a2 e8 fe 00 00 00 00	r2 = *(u64 *)(r10 - 0x118)
      14:	79 a1 f0 fe 00 00 00 00	r1 = *(u64 *)(r10 - 0x110)
      15:	79 15 00 00 00 00 00 00	r5 = *(u64 *)(r1 + 0x0)
      16:	79 a1 f8 ff 00 00 00 00	r1 = *(u64 *)(r10 - 0x8)
      17:	bf a3 00 00 00 00 00 00	r3 = r10
      18:	07 03 00 00 d4 ff ff ff	r3 += -0x2c
      19:	b7 04 00 00 14 00 00 00	r4 = 0x14
      20:	7b 4a 00 ff 00 00 00 00	*(u64 *)(r10 - 0x100) = r4
      21:	8d 00 00 00 05 00 00 00	callx r5
      22:	79 a1 f8 ff 00 00 00 00	r1 = *(u64 *)(r10 - 0x8)
      23:	61 11 00 00 00 00 00 00	r1 = *(u32 *)(r1 + 0x0)
      24:	63 1a c4 ff 00 00 00 00	*(u32 *)(r10 - 0x3c) = r1
      25:	61 a1 e0 ff 00 00 00 00	r1 = *(u32 *)(r10 - 0x20)
      26:	63 1a d0 ff 00 00 00 00	*(u32 *)(r10 - 0x30) = r1
      27:	61 a1 e4 ff 00 00 00 00	r1 = *(u32 *)(r10 - 0x1c)
      28:	63 1a cc ff 00 00 00 00	*(u32 *)(r10 - 0x34) = r1
      29:	18 01 00 00 08 00 00 00 00 00 00 00 00 00 00 00	r1 = 0x8 ll
      31:	79 11 00 00 00 00 00 00	r1 = *(u64 *)(r1 + 0x0)
      32:	8d 00 00 00 01 00 00 00	callx r1
      33:	7b 0a b8 ff 00 00 00 00	*(u64 *)(r10 - 0x48) = r0
      34:	79 a1 b8 ff 00 00 00 00	r1 = *(u64 *)(r10 - 0x48)
      35:	77 01 00 00 20 00 00 00	r1 >>= 0x20
      36:	63 1a b4 ff 00 00 00 00	*(u32 *)(r10 - 0x4c) = r1
      37:	79 a1 b8 ff 00 00 00 00	r1 = *(u64 *)(r10 - 0x48)
      38:	63 1a b0 ff 00 00 00 00	*(u32 *)(r10 - 0x50) = r1
      39:	18 01 00 00 10 00 00 00 00 00 00 00 00 00 00 00	r1 = 0x10 ll
      41:	79 11 00 00 00 00 00 00	r1 = *(u64 *)(r1 + 0x0)
      42:	8d 00 00 00 01 00 00 00	callx r1
      43:	77 00 00 00 20 00 00 00	r0 >>= 0x20
      44:	63 0a c8 ff 00 00 00 00	*(u32 *)(r10 - 0x38) = r0
      45:	18 01 00 00 18 00 00 00 00 00 00 00 00 00 00 00	r1 = 0x18 ll
      47:	79 13 00 00 00 00 00 00	r3 = *(u64 *)(r1 + 0x0)
      48:	bf a1 00 00 00 00 00 00	r1 = r10
      49:	07 01 00 00 a0 ff ff ff	r1 += -0x60
      50:	7b 1a f8 fe 00 00 00 00	*(u64 *)(r10 - 0x108) = r1
      51:	b7 02 00 00 10 00 00 00	r2 = 0x10
      52:	8d 00 00 00 03 00 00 00	callx r3
      53:	b7 01 00 00 20 00 00 00	r1 = 0x20
      54:	6b 1a 98 ff 00 00 00 00	*(u16 *)(r10 - 0x68) = r1
      55:	18 01 00 00 74 20 49 50 00 00 00 00 3a 20 25 75	r1 = 0x7525203a50492074 ll
      57:	7b 1a 90 ff 00 00 00 00	*(u64 *)(r10 - 0x70) = r1
      58:	18 01 00 00 20 25 75 2c 00 00 00 00 20 44 65 73	r1 = 0x736544202c752520 ll
      60:	7b 1a 88 ff 00 00 00 00	*(u64 *)(r10 - 0x78) = r1
      61:	18 01 00 00 20 53 72 63 00 00 00 00 20 49 50 3a	r1 = 0x3a50492063725320 ll
      63:	7b 1a 80 ff 00 00 00 00	*(u64 *)(r10 - 0x80) = r1
      64:	18 01 00 00 69 7a 65 3a 00 00 00 00 20 25 75 2c	r1 = 0x2c7525203a657a69 ll
      66:	7b 1a 78 ff 00 00 00 00	*(u64 *)(r10 - 0x88) = r1
      67:	18 01 00 00 50 61 63 6b 00 00 00 00 65 74 20 73	r1 = 0x732074656b636150 ll
      69:	7b 1a 70 ff 00 00 00 00	*(u64 *)(r10 - 0x90) = r1
      70:	18 01 00 00 20 00 00 00 00 00 00 00 00 00 00 00	r1 = 0x20 ll
      72:	7b 1a 08 ff 00 00 00 00	*(u64 *)(r10 - 0xf8) = r1
      73:	79 10 00 00 00 00 00 00	r0 = *(u64 *)(r1 + 0x0)
      74:	61 a5 cc ff 00 00 00 00	r5 = *(u32 *)(r10 - 0x34)
      75:	61 a4 d0 ff 00 00 00 00	r4 = *(u32 *)(r10 - 0x30)
      76:	61 a3 c4 ff 00 00 00 00	r3 = *(u32 *)(r10 - 0x3c)
      77:	bf a1 00 00 00 00 00 00	r1 = r10
      78:	07 01 00 00 70 ff ff ff	r1 += -0x90
      79:	b7 02 00 00 2a 00 00 00	r2 = 0x2a
      80:	8d 00 00 00 00 00 00 00	callx r0
      81:	79 a2 10 ff 00 00 00 00	r2 = *(u64 *)(r10 - 0xf0)
      82:	79 a1 08 ff 00 00 00 00	r1 = *(u64 *)(r10 - 0xf8)
      83:	7b 0a 68 ff 00 00 00 00	*(u64 *)(r10 - 0x98) = r0
      84:	73 2a 66 ff 00 00 00 00	*(u8 *)(r10 - 0x9a) = r2
      85:	b7 02 00 00 3a 20 00 00	r2 = 0x203a
      86:	6b 2a 64 ff 00 00 00 00	*(u16 *)(r10 - 0x9c) = r2
      87:	b7 02 00 00 3a 20 25 75	r2 = 0x7525203a
      88:	63 2a 60 ff 00 00 00 00	*(u32 *)(r10 - 0xa0) = r2
      89:	18 02 00 00 20 25 75 2c 00 00 00 00 20 50 49 44	r2 = 0x444950202c752520 ll
      91:	7b 2a 58 ff 00 00 00 00	*(u64 *)(r10 - 0xa8) = r2
      92:	18 02 00 00 72 6f 75 70 00 00 00 00 20 49 44 3a	r2 = 0x3a44492070756f72 ll
      94:	7b 2a 50 ff 00 00 00 00	*(u64 *)(r10 - 0xb0) = r2
      95:	18 02 00 00 44 3a 20 25 00 00 00 00 75 2c 20 47	r2 = 0x47202c7525203a44 ll
      97:	7b 2a 48 ff 00 00 00 00	*(u64 *)(r10 - 0xb8) = r2
      98:	18 02 00 00 2c 20 55 73 00 00 00 00 65 72 20 49	r2 = 0x492072657355202c ll
     100:	7b 2a 40 ff 00 00 00 00	*(u64 *)(r10 - 0xc0) = r2
     101:	79 10 00 00 00 00 00 00	r0 = *(u64 *)(r1 + 0x0)
     102:	61 a5 c8 ff 00 00 00 00	r5 = *(u32 *)(r10 - 0x38)
     103:	61 a4 b0 ff 00 00 00 00	r4 = *(u32 *)(r10 - 0x50)
     104:	61 a3 b4 ff 00 00 00 00	r3 = *(u32 *)(r10 - 0x4c)
     105:	bf a1 00 00 00 00 00 00	r1 = r10
     106:	07 01 00 00 40 ff ff ff	r1 += -0xc0
     107:	b7 02 00 00 27 00 00 00	r2 = 0x27
     108:	8d 00 00 00 00 00 00 00	callx r0
     109:	79 a3 f8 fe 00 00 00 00	r3 = *(u64 *)(r10 - 0x108)
     110:	79 a2 00 ff 00 00 00 00	r2 = *(u64 *)(r10 - 0x100)
     111:	79 a1 08 ff 00 00 00 00	r1 = *(u64 *)(r10 - 0xf8)
     112:	7b 0a 38 ff 00 00 00 00	*(u64 *)(r10 - 0xc8) = r0
     113:	b7 04 00 00 25 73 0a 00	r4 = 0xa7325
     114:	63 4a 30 ff 00 00 00 00	*(u32 *)(r10 - 0xd0) = r4
     115:	18 04 00 00 73 20 6e 61 00 00 00 00 6d 65 3a 20	r4 = 0x203a656d616e2073 ll
     117:	7b 4a 28 ff 00 00 00 00	*(u64 *)(r10 - 0xd8) = r4
     118:	18 04 00 00 2c 20 50 72 00 00 00 00 6f 63 65 73	r4 = 0x7365636f7250202c ll
     120:	7b 4a 20 ff 00 00 00 00	*(u64 *)(r10 - 0xe0) = r4
     121:	79 14 00 00 00 00 00 00	r4 = *(u64 *)(r1 + 0x0)
     122:	bf a1 00 00 00 00 00 00	r1 = r10
     123:	07 01 00 00 20 ff ff ff	r1 += -0xe0
     124:	8d 00 00 00 04 00 00 00	callx r4
     125:	bf 01 00 00 00 00 00 00	r1 = r0
     126:	79 a0 10 ff 00 00 00 00	r0 = *(u64 *)(r10 - 0xf0)
     127:	7b 1a 18 ff 00 00 00 00	*(u64 *)(r10 - 0xe8) = r1
     128:	95 00 00 00 00 00 00 00	exit
